(dp0
S'client_labels'
p1
(lp2
S'ClientId'
p3
aS'client_tfid_argmax'
p4
aS'client_cluster_128'
p5
asS'history_labels'
p6
(lp7
(lp8
(lp9
S'ProductId'
p10
ag3
aS'DepotId'
p11
aS'RouteId'
p12
aS'ChannelId'
p13
aaS'pcdrc'
p14
aa(lp15
(lp16
g10
ag3
aaS'prodclient'
p17
aa(lp18
(lp19
g10
ag12
aaS'prodruta'
p20
aa(lp21
(lp22
g3
ag12
aaS'clientruta'
p23
aa(lp24
(lp25
g10
aaS'prod'
p26
aa(lp27
(lp28
g3
aaS'client'
p29
aa(lp30
(lp31
g12
aaS'route'
p32
aa(lp33
(lp34
g11
aaS'depot'
p35
aasS'product_labels'
p36
(lp37
g10
aS'product_weight'
p38
aS'product_mean_price'
p39
aS'product_pieces'
p40
aS'product_shortname_tfidf_2591'
p41
aS'product_perks_tfidf_2591'
p42
asS'price_basis'
p43
(lp44
g3
ag10
asS'depot_labels'
p45
(lp46
g11
aS'depot_town'
p47
aS'depot_state'
p48
aS'depot_per_town'
p49
aS'depot_per_state'
p50
asS'price_label'
p51
S'price_by_pc'
p52
s.